Certificate:
    Data:
        Version: 3 (0x2)
        Serial Number: 2 (0x2)
    Signature Algorithm: sha256WithRSAEncryption
        Issuer: C=US, ST=CA, L=SanFrancisco, O=Fort-Funston, OU=MyOrganizationalUnit, CN=Fort-Funston CA/name=EasyRSA/emailAddress=me@myhost.mydomain
        Validity
            Not Before: Apr 12 11:09:46 2016 GMT
            Not After : Apr 10 11:09:46 2026 GMT
        Subject: C=US, ST=CA, L=SanFrancisco, O=Fort-Funston, OU=MyOrganizationalUnit, CN=wangyichen/name=EasyRSA/emailAddress=me@myhost.mydomain
        Subject Public Key Info:
            Public Key Algorithm: rsaEncryption
                Public-Key: (2048 bit)
                Modulus:
                    00:b3:ce:70:f8:84:bd:fd:ba:23:31:f6:97:66:76:
                    4d:33:9a:db:f8:1f:ab:b0:e1:bf:75:40:af:62:f6:
                    1e:75:a1:17:cc:cd:f8:76:52:94:bb:09:58:d6:6f:
                    a0:dd:8f:94:a2:df:a4:b6:4e:6b:62:ce:50:dd:74:
                    3c:b6:c8:6a:df:7a:5c:cd:da:ea:f6:de:aa:49:0f:
                    42:ea:98:61:1c:50:02:24:46:10:c8:5a:2e:56:eb:
                    26:10:e4:70:3e:32:41:83:78:a7:3f:76:eb:3e:06:
                    20:57:d0:e4:ba:b3:3c:8f:12:8a:60:ff:e9:ce:4b:
                    a9:27:e0:55:ff:d5:85:a8:c5:3a:d5:5f:1a:43:bd:
                    1b:8b:d5:81:bc:9e:c1:83:7f:eb:0c:a1:9d:86:1a:
                    df:5e:9a:09:85:92:9e:a2:94:60:89:ee:1f:e2:80:
                    4a:f1:89:b2:60:06:e6:aa:ef:ed:5b:20:32:f7:d7:
                    bb:e7:ce:b4:14:91:9d:99:c7:bd:9d:a3:50:51:71:
                    6f:cc:89:a2:75:9f:d0:3b:2a:80:b2:3e:3d:96:ae:
                    d0:e4:07:38:7e:ea:25:70:5b:ba:2a:6f:3e:18:ad:
                    fb:45:17:df:01:06:20:24:7d:63:2d:95:f4:9b:67:
                    62:06:38:e7:79:38:14:78:01:48:76:75:6d:6f:76:
                    27:e5
                Exponent: 65537 (0x10001)
        X509v3 extensions:
            X509v3 Basic Constraints: 
                CA:FALSE
            Netscape Comment: 
                Easy-RSA Generated Certificate
            X509v3 Subject Key Identifier: 
                B9:0C:8A:F8:A4:E0:1A:61:80:AA:8B:23:21:C1:21:1B:6E:08:5E:29
            X509v3 Authority Key Identifier: 
                keyid:33:90:C2:80:28:C6:BB:CC:61:B6:B4:56:00:36:B3:19:81:1C:AA:F1
                DirName:/C=US/ST=CA/L=SanFrancisco/O=Fort-Funston/OU=MyOrganizationalUnit/CN=Fort-Funston CA/name=EasyRSA/emailAddress=me@myhost.mydomain
                serial:CE:C9:CA:5E:33:8A:9F:E6

            X509v3 Extended Key Usage: 
                TLS Web Client Authentication
            X509v3 Key Usage: 
                Digital Signature
    Signature Algorithm: sha256WithRSAEncryption
         b8:6c:c1:8c:8d:38:60:2a:35:8d:bb:95:b2:a3:eb:34:1f:f7:
         73:32:8d:1f:b1:1b:f6:a7:51:ce:32:e0:91:f1:61:f9:c0:fa:
         8b:36:fd:8a:b6:39:46:c5:28:f3:ca:57:27:58:2d:cd:e2:7d:
         2f:96:1e:ad:0c:9b:e4:00:30:e8:08:74:4a:8e:91:5a:a7:f6:
         3b:79:4d:6b:46:de:86:39:b8:c4:56:e9:f4:74:d6:de:4b:71:
         8f:65:0d:3d:06:af:f4:d4:0a:2a:52:cc:47:1f:a9:8a:b1:ca:
         32:9f:35:82:03:60:04:f7:57:9f:97:0b:42:19:40:17:5d:ef:
         5b:63:df:7f:c1:b9:b6:e4:5d:ae:12:3c:13:80:cb:d9:dd:97:
         f8:f5:27:be:36:a8:18:94:fc:69:a9:00:f4:fd:6e:0c:c0:5c:
         7c:5b:c0:46:5d:82:18:7d:b3:0f:75:e1:56:ee:58:b6:1e:a4:
         d0:c6:71:f4:d6:ad:97:5d:95:c3:f2:ea:f1:a8:f9:00:c9:e6:
         2b:28:30:e6:14:e5:3c:72:60:d8:f3:0e:55:87:85:a7:05:68:
         9d:44:ff:21:52:7c:b9:a3:5c:ba:95:f3:d4:87:0b:a6:b9:e2:
         f8:d6:76:41:04:59:5c:47:6b:d6:fe:a1:70:00:8c:73:bf:17:
         5f:e1:f5:d8
-----BEGIN CERTIFICATE-----
MIIFUzCCBDugAwIBAgIBAjANBgkqhkiG9w0BAQsFADCBtjELMAkGA1UEBhMCVVMx
CzAJBgNVBAgTAkNBMRUwEwYDVQQHEwxTYW5GcmFuY2lzY28xFTATBgNVBAoTDEZv
cnQtRnVuc3RvbjEdMBsGA1UECxMUTXlPcmdhbml6YXRpb25hbFVuaXQxGDAWBgNV
BAMTD0ZvcnQtRnVuc3RvbiBDQTEQMA4GA1UEKRMHRWFzeVJTQTEhMB8GCSqGSIb3
DQEJARYSbWVAbXlob3N0Lm15ZG9tYWluMB4XDTE2MDQxMjExMDk0NloXDTI2MDQx
MDExMDk0NlowgbExCzAJBgNVBAYTAlVTMQswCQYDVQQIEwJDQTEVMBMGA1UEBxMM
U2FuRnJhbmNpc2NvMRUwEwYDVQQKEwxGb3J0LUZ1bnN0b24xHTAbBgNVBAsTFE15
T3JnYW5pemF0aW9uYWxVbml0MRMwEQYDVQQDEwp3YW5neWljaGVuMRAwDgYDVQQp
EwdFYXN5UlNBMSEwHwYJKoZIhvcNAQkBFhJtZUBteWhvc3QubXlkb21haW4wggEi
MA0GCSqGSIb3DQEBAQUAA4IBDwAwggEKAoIBAQCzznD4hL39uiMx9pdmdk0zmtv4
H6uw4b91QK9i9h51oRfMzfh2UpS7CVjWb6Ddj5Si36S2TmtizlDddDy2yGrfelzN
2ur23qpJD0LqmGEcUAIkRhDIWi5W6yYQ5HA+MkGDeKc/dus+BiBX0OS6szyPEopg
/+nOS6kn4FX/1YWoxTrVXxpDvRuL1YG8nsGDf+sMoZ2GGt9emgmFkp6ilGCJ7h/i
gErxibJgBuaq7+1bIDL317vnzrQUkZ2Zx72do1BRcW/MiaJ1n9A7KoCyPj2WrtDk
Bzh+6iVwW7oqbz4YrftFF98BBiAkfWMtlfSbZ2IGOOd5OBR4AUh2dW1vdiflAgMB
AAGjggFtMIIBaTAJBgNVHRMEAjAAMC0GCWCGSAGG+EIBDQQgFh5FYXN5LVJTQSBH
ZW5lcmF0ZWQgQ2VydGlmaWNhdGUwHQYDVR0OBBYEFLkMivik4BphgKqLIyHBIRtu
CF4pMIHrBgNVHSMEgeMwgeCAFDOQwoAoxrvMYba0VgA2sxmBHKrxoYG8pIG5MIG2
MQswCQYDVQQGEwJVUzELMAkGA1UECBMCQ0ExFTATBgNVBAcTDFNhbkZyYW5jaXNj
bzEVMBMGA1UEChMMRm9ydC1GdW5zdG9uMR0wGwYDVQQLExRNeU9yZ2FuaXphdGlv
bmFsVW5pdDEYMBYGA1UEAxMPRm9ydC1GdW5zdG9uIENBMRAwDgYDVQQpEwdFYXN5
UlNBMSEwHwYJKoZIhvcNAQkBFhJtZUBteWhvc3QubXlkb21haW6CCQDOycpeM4qf
5jATBgNVHSUEDDAKBggrBgEFBQcDAjALBgNVHQ8EBAMCB4AwDQYJKoZIhvcNAQEL
BQADggEBALhswYyNOGAqNY27lbKj6zQf93MyjR+xG/anUc4y4JHxYfnA+os2/Yq2
OUbFKPPKVydYLc3ifS+WHq0Mm+QAMOgIdEqOkVqn9jt5TWtG3oY5uMRW6fR01t5L
cY9lDT0Gr/TUCipSzEcfqYqxyjKfNYIDYAT3V5+XC0IZQBdd71tj33/BubbkXa4S
PBOAy9ndl/j1J742qBiU/GmpAPT9bgzAXHxbwEZdghh9sw914VbuWLYepNDGcfTW
rZddlcPy6vGo+QDJ5isoMOYU5TxyYNjzDlWHhacFaJ1E/yFSfLmjXLqV89SHC6a5
4vjWdkEEWVxHa9b+oXAAjHO/F1/h9dg=
-----END CERTIFICATE-----
